target datalayout = "e-m:e-p270:32:32-p271:32:32-p272:64:64-i64:64-i128:128-f80:128-n8:16:32:64-S128"
target triple = "x86_64-pc-linux-gnu"

%struct.strvec = type { ptr, i64, i64 }
%struct.strbuf = type { i64, i64, ptr }
%struct.am_state = type { ptr, i32, i32, ptr, ptr, ptr, ptr, i64, %struct.object_id, i32, i32, i32, i32, i32, i32, i32, i32, i32, i32, i32, i32, %struct.strvec, ptr, i32, i32, i32, ptr, i32 }
%struct.object_id = type { [32 x i8], i32 }

@__const.am_destroy.sb = private unnamed_addr constant %struct.strbuf { i64 0, i64 0, ptr @strbuf_slopbuf }, align 8

; Function Attrs: inlinehint nounwind uwtable
define internal void @strbuf_addstr(ptr noundef %0, ptr noundef %1) #5 {
  %3 = alloca ptr, align 8
  %4 = alloca ptr, align 8
  store ptr %0, ptr %3, align 8, !tbaa !98
  store ptr %1, ptr %4, align 8, !tbaa !11
  %5 = load ptr, ptr %3, align 8, !tbaa !98
  %6 = load ptr, ptr %4, align 8, !tbaa !11
  %7 = load ptr, ptr %4, align 8, !tbaa !11
  %8 = call i64 @strlen(ptr noundef %7) #16
  call void @strbuf_add(ptr noundef %5, ptr noundef %6, i64 noundef %8)
  ret void
}

; Function Attrs: nounwind uwtable
define internal void @am_destroy(ptr noundef %0) #0 {
  %2 = alloca ptr, align 8
  %3 = alloca %struct.strbuf, align 8
  store ptr %0, ptr %2, align 8, !tbaa !47
  call void @llvm.lifetime.start.p0(i64 24, ptr %3) #14
  call void @llvm.memcpy.p0.p0.i64(ptr align 8 %3, ptr align 8 @__const.am_destroy.sb, i64 24, i1 false)
  %4 = load ptr, ptr %2, align 8, !tbaa !47
  %5 = getelementptr inbounds nuw %struct.am_state, ptr %4, i32 0, i32 0
  %6 = load ptr, ptr %5, align 8, !tbaa !31
  call void @strbuf_addstr(ptr noundef %3, ptr noundef %6)
  %7 = call i32 @remove_dir_recursively(ptr noundef %3, i32 noundef 0)
  call void @strbuf_release(ptr noundef %3)
  call void @llvm.lifetime.end.p0(i64 24, ptr %3) #14
  ret void
}