; Function Attrs: nounwind uwtable
define internal fastcc void @am_destroy(ptr %.0.val) unnamed_addr #0 {
  %1 = alloca %struct.strbuf, align 8
  call void @llvm.lifetime.start.p0(i64 24, ptr nonnull %1) #21
  call void @llvm.memcpy.p0.p0.i64(ptr noundef nonnull align 8 dereferenceable(24) %1, ptr noundef nonnull align 8 dereferenceable(24) @__const.show_patch.sb, i64 24, i1 false)
  %2 = tail call i64 @strlen(ptr noundef nonnull dereferenceable(1) %.0.val) #23
  call void @strbuf_add(ptr noundef nonnull %1, ptr noundef nonnull %.0.val, i64 noundef %2) #21
  %3 = call i32 @remove_dir_recursively(ptr noundef nonnull %1, i32 noundef 0) #21
  call void @strbuf_release(ptr noundef nonnull %1) #21
  call void @llvm.lifetime.end.p0(i64 24, ptr nonnull %1) #21
  ret void
}